target datalayout = "e-m:e-p270:32:32-p271:32:32-p272:64:64-i64:64-i128:128-f80:128-n8:16:32:64-S128"
target triple = "x86_64-pc-linux-gnu"

%struct.slurm_conf_t = type { i64, ptr, i16, ptr, ptr, ptr, ptr, ptr, i16, ptr, ptr, ptr, ptr, ptr, ptr, ptr, i16, ptr, ptr, ptr, ptr, i16, ptr, ptr, ptr, i64, ptr, ptr, ptr, ptr, i16, ptr, ptr, i16, i32, ptr, i32, ptr, i32, i32, ptr, ptr, i64, i64, ptr, i16, i16, ptr, i32, i32, ptr, i32, ptr, i32, i16, i16, i16, ptr, i16, i16, ptr, ptr, i32, i16, i16, ptr, i32, i16, ptr, ptr, ptr, ptr, i16, ptr, ptr, ptr, ptr, i32, ptr, ptr, ptr, ptr, i16, i16, ptr, i32, i32, i32, i16, i16, ptr, ptr, i16, ptr, ptr, i32, i32, i32, i32, i32, i64, i32, i32, i16, ptr, ptr, i32, ptr, ptr, ptr, i16, i32, ptr, ptr, i16, ptr, ptr, i32, i16, ptr, ptr, ptr, ptr, i32, i32, i16, i16, i32, ptr, i16, ptr, i32, i32, i32, i32, i32, i32, ptr, i16, ptr, ptr, i32, i16, ptr, i32, i16, i16, ptr, ptr, ptr, i16, ptr, ptr, ptr, ptr, i16, i16, ptr, i16, ptr, i16, ptr, i16, ptr, i16, ptr, ptr, ptr, ptr, i16, ptr, ptr, ptr, i32, ptr, i32, ptr, ptr, i16, ptr, ptr, i32, i16, ptr, ptr, i16, i16, ptr, i16, ptr, ptr, ptr, i32, ptr, i16, i16, ptr, ptr, ptr, ptr, ptr, ptr, ptr, ptr, i16, i32, i16, ptr, ptr, ptr, ptr, i32, ptr, ptr, ptr, i16, ptr, ptr, ptr, i16, ptr, i16, ptr, i16, i16, ptr }
%struct.cr_record = type { ptr, ptr, i16, ptr, i16 }
%struct.node_cr_record = type { ptr, i64, i16, ptr }
%struct.node_record = type { ptr, ptr, i16, i64, i64, ptr, ptr, ptr, i16, ptr, i16, i16, i32, i32, i64, ptr, i16, i16, ptr, ptr, ptr, ptr, ptr, i64, i64, ptr, ptr, ptr, ptr, i32, ptr, ptr, i64, i64, i32, ptr, i64, ptr, i32, i16, ptr, ptr, i32, ptr, i32, i8, ptr, i32, i16, i16, ptr, i16, i64, i16, i64, ptr, i64, i32, i16, i64, i16, ptr, i16, i64, ptr, i64, i16, i32, i16, ptr, ptr, ptr, i16, i32, i16, i16, i32, ptr, i16, i32 }
%struct.config_record_t = type { i16, i16, i16, i32, ptr, i16, ptr, ptr, i32, i64, ptr, ptr, i64, i16, i16, i32, i16, ptr, ptr, i32 }
%struct.select_nodeinfo = type { i16, i16, i64, ptr, double }

@plugin_type = dso_local constant [14 x i8] c"select/linear\00", align 1
@slurm_conf = dso_local global %struct.slurm_conf_t zeroinitializer, align 8
@cr_ptr = internal global ptr null, align 8
@select_p_select_nodeinfo_set_all.last_set_all = internal global i64 0, align 8
@last_node_update = dso_local global i64 0, align 8
@.str.13 = private unnamed_addr constant [62 x i8] c"%s: %s: Node select info for set all hasn't changed since %ld\00", align 1
@__func__.select_p_select_nodeinfo_set_all = private unnamed_addr constant [33 x i8] c"select_p_select_nodeinfo_set_all\00", align 1
@.str.14 = private unnamed_addr constant [36 x i8] c"no nodeinfo returned from structure\00", align 1

; Function Attrs: nounwind uwtable
define dso_local i32 @select_p_select_nodeinfo_set_all() #0 {
  %1 = alloca i32, align 4
  %2 = alloca ptr, align 8
  %3 = alloca i32, align 4
  %4 = alloca i32, align 4
  %5 = alloca ptr, align 8
  call void @llvm.lifetime.start.p0(i64 8, ptr %2) #8
  store ptr null, ptr %2, align 8
  call void @llvm.lifetime.start.p0(i64 4, ptr %3) #8
  %6 = load i64, ptr @select_p_select_nodeinfo_set_all.last_set_all, align 8
  %7 = icmp ne i64 %6, 0
  br i1 %7, label %8, label %24

8:                                                ; preds = %0
  %9 = load i64, ptr @last_node_update, align 8
  %10 = load i64, ptr @select_p_select_nodeinfo_set_all.last_set_all, align 8
  %11 = icmp slt i64 %9, %10
  br i1 %11, label %12, label %24

12:                                               ; preds = %8
  br label %13

13:                                               ; preds = %12
  br label %14

14:                                               ; preds = %13
  %15 = call i32 @slurm_get_log_level()
  %16 = icmp sge i32 %15, 6
  br i1 %16, label %17, label %19

17:                                               ; preds = %14
  %18 = load i64, ptr @select_p_select_nodeinfo_set_all.last_set_all, align 8
  call void (i32, ptr, ...) @slurm_log_var(i32 noundef 6, ptr noundef @.str.13, ptr noundef @plugin_type, ptr noundef @__func__.select_p_select_nodeinfo_set_all, i64 noundef %18)
  br label %19

19:                                               ; preds = %17, %14
  br label %20

20:                                               ; preds = %19
  br label %21

21:                                               ; preds = %20
  br label %22

22:                                               ; preds = %21
  br label %23

23:                                               ; preds = %22
  store i32 1900, ptr %1, align 4
  store i32 1, ptr %4, align 4
  br label %116

24:                                               ; preds = %8, %0
  %25 = load i64, ptr @last_node_update, align 8
  store i64 %25, ptr @select_p_select_nodeinfo_set_all.last_set_all, align 8
  store i32 0, ptr %3, align 4
  br label %26

26:                                               ; preds = %112, %24
  %27 = call ptr @next_node(ptr noundef %3)
  store ptr %27, ptr %2, align 8
  %28 = icmp ne ptr %27, null
  br i1 %28, label %29, label %115

29:                                               ; preds = %26
  call void @llvm.lifetime.start.p0(i64 8, ptr %5) #8
  store ptr null, ptr %5, align 8
  %30 = load ptr, ptr %2, align 8
  %31 = getelementptr inbounds nuw %struct.node_record, ptr %30, i32 0, i32 64
  %32 = load ptr, ptr %31, align 8
  %33 = call i32 @select_g_select_nodeinfo_get(ptr noundef %32, i32 noundef 5, i32 noundef 0, ptr noundef %5)
  %34 = load ptr, ptr %5, align 8
  %35 = icmp ne ptr %34, null
  br i1 %35, label %38, label %36

36:                                               ; preds = %29
  %37 = call i32 (ptr, ...) @slurm_error(ptr noundef @.str.14)
  store i32 8, ptr %4, align 4
  br label %109

38:                                               ; preds = %29
  %39 = load ptr, ptr %5, align 8
  %40 = getelementptr inbounds nuw %struct.select_nodeinfo, ptr %39, i32 0, i32 3
  call void @slurm_xfree(ptr noundef %40)
  %41 = load ptr, ptr %2, align 8
  %42 = getelementptr inbounds nuw %struct.node_record, ptr %41, i32 0, i32 44
  %43 = load i32, ptr %42, align 8
  %44 = zext i32 %43 to i64
  %45 = and i64 %44, 1024
  %46 = icmp ne i64 %45, 0
  br i1 %46, label %53, label %47

47:                                               ; preds = %38
  %48 = load ptr, ptr %2, align 8
  %49 = getelementptr inbounds nuw %struct.node_record, ptr %48, i32 0, i32 44
  %50 = load i32, ptr %49, align 8
  %51 = and i32 %50, 15
  %52 = icmp eq i32 %51, 3
  br i1 %52, label %53, label %79

53:                                               ; preds = %47, %38
  %54 = load ptr, ptr %2, align 8
  %55 = getelementptr inbounds nuw %struct.node_record, ptr %54, i32 0, i32 9
  %56 = load ptr, ptr %55, align 8
  %57 = getelementptr inbounds nuw %struct.config_record_t, ptr %56, i32 0, i32 5
  %58 = load i16, ptr %57, align 8
  %59 = load ptr, ptr %5, align 8
  %60 = getelementptr inbounds nuw %struct.select_nodeinfo, ptr %59, i32 0, i32 1
  store i16 %58, ptr %60, align 2
  %61 = load ptr, ptr %2, align 8
  %62 = getelementptr inbounds nuw %struct.node_record, ptr %61, i32 0, i32 69
  %63 = load ptr, ptr %62, align 8
  %64 = call ptr @assoc_mgr_make_tres_str_from_array(ptr noundef %63, i32 noundef 128, i1 noundef zeroext false)
  %65 = load ptr, ptr %5, align 8
  %66 = getelementptr inbounds nuw %struct.select_nodeinfo, ptr %65, i32 0, i32 3
  store ptr %64, ptr %66, align 8
  %67 = load ptr, ptr %2, align 8
  %68 = getelementptr inbounds nuw %struct.node_record, ptr %67, i32 0, i32 69
  %69 = load ptr, ptr %68, align 8
  %70 = load ptr, ptr %2, align 8
  %71 = getelementptr inbounds nuw %struct.node_record, ptr %70, i32 0, i32 9
  %72 = load ptr, ptr %71, align 8
  %73 = getelementptr inbounds nuw %struct.config_record_t, ptr %72, i32 0, i32 17
  %74 = load ptr, ptr %73, align 8
  %75 = load i16, ptr getelementptr inbounds nuw (%struct.slurm_conf_t, ptr @slurm_conf, i32 0, i32 126), align 2
  %76 = call double @assoc_mgr_tres_weighted(ptr noundef %69, ptr noundef %74, i16 noundef zeroext %75, i1 noundef zeroext false)
  %77 = load ptr, ptr %5, align 8
  %78 = getelementptr inbounds nuw %struct.select_nodeinfo, ptr %77, i32 0, i32 4
  store double %76, ptr %78, align 8
  br label %84

79:                                               ; preds = %47
  %80 = load ptr, ptr %5, align 8
  %81 = getelementptr inbounds nuw %struct.select_nodeinfo, ptr %80, i32 0, i32 1
  store i16 0, ptr %81, align 2
  %82 = load ptr, ptr %5, align 8
  %83 = getelementptr inbounds nuw %struct.select_nodeinfo, ptr %82, i32 0, i32 4
  store double 0.000000e+00, ptr %83, align 8
  br label %84

84:                                               ; preds = %79, %53
  %85 = load ptr, ptr @cr_ptr, align 8
  %86 = icmp ne ptr %85, null
  br i1 %86, label %87, label %105

87:                                               ; preds = %84
  %88 = load ptr, ptr @cr_ptr, align 8
  %89 = getelementptr inbounds nuw %struct.cr_record, ptr %88, i32 0, i32 0
  %90 = load ptr, ptr %89, align 8
  %91 = icmp ne ptr %90, null
  br i1 %91, label %92, label %105

92:                                               ; preds = %87
  %93 = load ptr, ptr @cr_ptr, align 8
  %94 = getelementptr inbounds nuw %struct.cr_record, ptr %93, i32 0, i32 0
  %95 = load ptr, ptr %94, align 8
  %96 = load ptr, ptr %2, align 8
  %97 = getelementptr inbounds nuw %struct.node_record, ptr %96, i32 0, i32 29
  %98 = load i32, ptr %97, align 8
  %99 = zext i32 %98 to i64
  %100 = getelementptr inbounds nuw %struct.node_cr_record, ptr %95, i64 %99
  %101 = getelementptr inbounds nuw %struct.node_cr_record, ptr %100, i32 0, i32 1
  %102 = load i64, ptr %101, align 8
  %103 = load ptr, ptr %5, align 8
  %104 = getelementptr inbounds nuw %struct.select_nodeinfo, ptr %103, i32 0, i32 2
  store i64 %102, ptr %104, align 8
  br label %108

105:                                              ; preds = %87, %84
  %106 = load ptr, ptr %5, align 8
  %107 = getelementptr inbounds nuw %struct.select_nodeinfo, ptr %106, i32 0, i32 2
  store i64 0, ptr %107, align 8
  br label %108

108:                                              ; preds = %105, %92
  store i32 0, ptr %4, align 4
  br label %109

109:                                              ; preds = %108, %36
  call void @llvm.lifetime.end.p0(i64 8, ptr %5) #8
  %110 = load i32, ptr %4, align 4
  switch i32 %110, label %118 [
    i32 0, label %111
    i32 8, label %112
  ]

111:                                              ; preds = %109
  br label %112

112:                                              ; preds = %111, %109
  %113 = load i32, ptr %3, align 4
  %114 = add nsw i32 %113, 1
  store i32 %114, ptr %3, align 4
  br label %26, !llvm.loop !35

115:                                              ; preds = %26
  store i32 0, ptr %1, align 4
  store i32 1, ptr %4, align 4
  br label %116

116:                                              ; preds = %115, %23
  call void @llvm.lifetime.end.p0(i64 4, ptr %3) #8
  call void @llvm.lifetime.end.p0(i64 8, ptr %2) #8
  %117 = load i32, ptr %1, align 4
  ret i32 %117

118:                                              ; preds = %109
  unreachable
}