; Function Attrs: nounwind uwtable
define dso_local range(i32 0, 1901) i32 @select_p_select_nodeinfo_set_all() local_unnamed_addr #0 {
  %1 = alloca i32, align 4
  %2 = alloca ptr, align 8
  call void @llvm.lifetime.start.p0(i64 4, ptr nonnull %1) #11
  %3 = load i64, ptr @select_p_select_nodeinfo_set_all.last_set_all, align 8
  %.not = icmp ne i64 %3, 0
  %4 = load i64, ptr @last_node_update, align 8
  %5 = icmp slt i64 %4, %3
  %or.cond = select i1 %.not, i1 %5, i1 false
  br i1 %or.cond, label %6, label %11

6:                                                ; preds = %0
  %7 = tail call i32 @slurm_get_log_level() #11
  %8 = icmp sgt i32 %7, 5
  br i1 %8, label %9, label %.loopexit

9:                                                ; preds = %6
  %10 = load i64, ptr @select_p_select_nodeinfo_set_all.last_set_all, align 8
  tail call void (i32, ptr, ...) @slurm_log_var(i32 noundef 6, ptr noundef nonnull @.str.13, ptr noundef nonnull @plugin_type, ptr noundef nonnull @__func__.select_p_select_nodeinfo_set_all, i64 noundef %10) #11
  br label %.loopexit

11:                                               ; preds = %0
  store i64 %4, ptr @select_p_select_nodeinfo_set_all.last_set_all, align 8
  store i32 0, ptr %1, align 4
  %12 = call ptr @next_node(ptr noundef nonnull %1) #11
  %.not1321 = icmp eq ptr %12, null
  br i1 %.not1321, label %.loopexit, label %.lr.ph

.lr.ph:                                           ; preds = %11, %63
  %13 = phi ptr [ %66, %63 ], [ %12, %11 ]
  call void @llvm.lifetime.start.p0(i64 8, ptr nonnull %2) #11
  store ptr null, ptr %2, align 8
  %14 = getelementptr inbounds nuw i8, ptr %13, i64 448
  %15 = load ptr, ptr %14, align 8
  %16 = call i32 @select_g_select_nodeinfo_get(ptr noundef %15, i32 noundef 5, i32 noundef 0, ptr noundef nonnull %2) #11
  %17 = load ptr, ptr %2, align 8
  %.not14 = icmp eq ptr %17, null
  br i1 %.not14, label %18, label %20

18:                                               ; preds = %.lr.ph
  %19 = call i32 (ptr, ...) @slurm_error(ptr noundef nonnull @.str.14) #11
  br label %63

20:                                               ; preds = %.lr.ph
  %21 = getelementptr inbounds nuw i8, ptr %17, i64 16
  call void @slurm_xfree(ptr noundef nonnull %21) #11
  %22 = getelementptr inbounds nuw i8, ptr %13, i64 320
  %23 = load i32, ptr %22, align 8
  %24 = and i32 %23, 1024
  %.not15 = icmp ne i32 %24, 0
  %25 = and i32 %23, 15
  %26 = icmp eq i32 %25, 3
  %or.cond20 = or i1 %.not15, %26
  br i1 %or.cond20, label %27, label %45

27:                                               ; preds = %20
  %28 = getelementptr inbounds nuw i8, ptr %13, i64 72
  %29 = load ptr, ptr %28, align 8
  %30 = getelementptr inbounds nuw i8, ptr %29, i64 24
  %31 = load i16, ptr %30, align 8
  %32 = load ptr, ptr %2, align 8
  %33 = getelementptr inbounds nuw i8, ptr %32, i64 2
  store i16 %31, ptr %33, align 2
  %34 = getelementptr inbounds nuw i8, ptr %13, i64 480
  %35 = load ptr, ptr %34, align 8
  %36 = call ptr @assoc_mgr_make_tres_str_from_array(ptr noundef %35, i32 noundef 128, i1 noundef zeroext false) #11
  %37 = load ptr, ptr %2, align 8
  %38 = getelementptr inbounds nuw i8, ptr %37, i64 16
  store ptr %36, ptr %38, align 8
  %39 = load ptr, ptr %34, align 8
  %40 = load ptr, ptr %28, align 8
  %41 = getelementptr inbounds nuw i8, ptr %40, i64 104
  %42 = load ptr, ptr %41, align 8
  %43 = load i16, ptr getelementptr inbounds nuw (i8, ptr @slurm_conf, i64 842), align 2
  %44 = call double @assoc_mgr_tres_weighted(ptr noundef %39, ptr noundef %42, i16 noundef zeroext %43, i1 noundef zeroext false) #11
  br label %48

45:                                               ; preds = %20
  %46 = load ptr, ptr %2, align 8
  %47 = getelementptr inbounds nuw i8, ptr %46, i64 2
  store i16 0, ptr %47, align 2
  br label %48

48:                                               ; preds = %45, %27
  %.sink = phi double [ 0.000000e+00, %45 ], [ %44, %27 ]
  %49 = load ptr, ptr %2, align 8
  %50 = getelementptr inbounds nuw i8, ptr %49, i64 24
  store double %.sink, ptr %50, align 8
  %51 = load ptr, ptr @cr_ptr, align 8
  %.not16 = icmp eq ptr %51, null
  br i1 %.not16, label %61, label %52

52:                                               ; preds = %48
  %53 = load ptr, ptr %51, align 8
  %.not17 = icmp eq ptr %53, null
  br i1 %.not17, label %61, label %54

54:                                               ; preds = %52
  %55 = getelementptr inbounds nuw i8, ptr %13, i64 208
  %56 = load i32, ptr %55, align 8
  %57 = zext i32 %56 to i64
  %58 = getelementptr inbounds nuw %struct.node_cr_record, ptr %53, i64 %57, i32 1
  %59 = load i64, ptr %58, align 8
  %60 = getelementptr inbounds nuw i8, ptr %49, i64 8
  store i64 %59, ptr %60, align 8
  br label %63

61:                                               ; preds = %52, %48
  %62 = getelementptr inbounds nuw i8, ptr %49, i64 8
  store i64 0, ptr %62, align 8
  br label %63

63:                                               ; preds = %54, %61, %18
  call void @llvm.lifetime.end.p0(i64 8, ptr nonnull %2) #11
  %64 = load i32, ptr %1, align 4
  %65 = add nsw i32 %64, 1
  store i32 %65, ptr %1, align 4
  %66 = call ptr @next_node(ptr noundef nonnull %1) #11
  %.not13 = icmp eq ptr %66, null
  br i1 %.not13, label %.loopexit, label %.lr.ph, !llvm.loop !42

.loopexit:                                        ; preds = %63, %11, %6, %9
  %.0 = phi i32 [ 1900, %9 ], [ 1900, %6 ], [ 0, %11 ], [ 0, %63 ]
  call void @llvm.lifetime.end.p0(i64 4, ptr nonnull %1) #11
  ret i32 %.0
}